; ModuleID = '50/1606.c'
source_filename = "50/1606.c"
target datalayout = "e-m:e-p270:32:32-p271:32:32-p272:64:64-i64:64-f80:128-n8:16:32:64-S128"
target triple = "x86_64-pc-linux-gnu"

@.str = private unnamed_addr constant [3 x i8] c"%d\00", align 1
@.str.1 = private unnamed_addr constant [4 x i8] c"%d\0A\00", align 1

; Function Attrs: noinline nounwind uwtable
define dso_local i32 @main() #0 {
  %1 = alloca i32, align 4
  %2 = alloca i32, align 4
  %3 = alloca i32, align 4
  %4 = alloca [12 x i32], align 16
  %5 = alloca i32, align 4
  store i32 0, i32* %1, align 4
  %6 = bitcast [12 x i32]* %4 to i8*
  call void @llvm.memset.p0i8.i64(i8* align 16 %6, i8 0, i64 48, i1 false)
  %7 = call i32 (i8*, ...) @__isoc99_scanf(i8* getelementptr inbounds ([3 x i8], [3 x i8]* @.str, i64 0, i64 0), i32* %2)
  %8 = load i32, i32* %2, align 4
  %9 = add nsw i32 %8, 5
  %10 = srem i32 %9, 7
  store i32 %10, i32* %3, align 4
  %11 = load i32, i32* %3, align 4
  %12 = icmp eq i32 %11, 5
  br i1 %12, label %13, label %15

13:                                               ; preds = %0
  %14 = call i32 (i8*, ...) @printf(i8* getelementptr inbounds ([4 x i8], [4 x i8]* @.str.1, i64 0, i64 0), i32 1)
  br label %15

15:                                               ; preds = %13, %0
  %16 = load i32, i32* %3, align 4
  %17 = add nsw i32 %16, 3
  %18 = srem i32 %17, 7
  %19 = getelementptr inbounds [12 x i32], [12 x i32]* %4, i64 0, i64 2
  store i32 %18, i32* %19, align 8
  %20 = getelementptr inbounds [12 x i32], [12 x i32]* %4, i64 0, i64 2
  %21 = load i32, i32* %20, align 8
  %22 = getelementptr inbounds [12 x i32], [12 x i32]* %4, i64 0, i64 3
  store i32 %21, i32* %22, align 4
  store i32 4, i32* %5, align 4
  br label %23

23:                                               ; preds = %76, %15
  %24 = load i32, i32* %5, align 4
  %25 = icmp slt i32 %24, 13
  br i1 %25, label %26, label %79

26:                                               ; preds = %23
  %27 = load i32, i32* %5, align 4
  %28 = icmp eq i32 %27, 5
  br i1 %28, label %38, label %29

29:                                               ; preds = %26
  %30 = load i32, i32* %5, align 4
  %31 = icmp eq i32 %30, 7
  br i1 %31, label %38, label %32

32:                                               ; preds = %29
  %33 = load i32, i32* %5, align 4
  %34 = icmp eq i32 %33, 10
  br i1 %34, label %38, label %35

35:                                               ; preds = %32
  %36 = load i32, i32* %5, align 4
  %37 = icmp eq i32 %36, 12
  br i1 %37, label %38, label %49

38:                                               ; preds = %35, %32, %29, %26
  %39 = load i32, i32* %5, align 4
  %40 = sub nsw i32 %39, 1
  %41 = sext i32 %40 to i64
  %42 = getelementptr inbounds [12 x i32], [12 x i32]* %4, i64 0, i64 %41
  %43 = load i32, i32* %42, align 4
  %44 = add nsw i32 %43, 2
  %45 = srem i32 %44, 7
  %46 = load i32, i32* %5, align 4
  %47 = sext i32 %46 to i64
  %48 = getelementptr inbounds [12 x i32], [12 x i32]* %4, i64 0, i64 %47
  store i32 %45, i32* %48, align 4
  br label %49

49:                                               ; preds = %38, %35
  %50 = load i32, i32* %5, align 4
  %51 = icmp eq i32 %50, 4
  br i1 %51, label %64, label %52

52:                                               ; preds = %49
  %53 = load i32, i32* %5, align 4
  %54 = icmp eq i32 %53, 6
  br i1 %54, label %64, label %55

55:                                               ; preds = %52
  %56 = load i32, i32* %5, align 4
  %57 = icmp eq i32 %56, 8
  br i1 %57, label %64, label %58

58:                                               ; preds = %55
  %59 = load i32, i32* %5, align 4
  %60 = icmp eq i32 %59, 9
  br i1 %60, label %64, label %61

61:                                               ; preds = %58
  %62 = load i32, i32* %5, align 4
  %63 = icmp eq i32 %62, 11
  br i1 %63, label %64, label %75

64:                                               ; preds = %61, %58, %55, %52, %49
  %65 = load i32, i32* %5, align 4
  %66 = sub nsw i32 %65, 1
  %67 = sext i32 %66 to i64
  %68 = getelementptr inbounds [12 x i32], [12 x i32]* %4, i64 0, i64 %67
  %69 = load i32, i32* %68, align 4
  %70 = add nsw i32 %69, 3
  %71 = srem i32 %70, 7
  %72 = load i32, i32* %5, align 4
  %73 = sext i32 %72 to i64
  %74 = getelementptr inbounds [12 x i32], [12 x i32]* %4, i64 0, i64 %73
  store i32 %71, i32* %74, align 4
  br label %75

75:                                               ; preds = %64, %61
  br label %76

76:                                               ; preds = %75
  %77 = load i32, i32* %5, align 4
  %78 = add nsw i32 %77, 1
  store i32 %78, i32* %5, align 4
  br label %23

79:                                               ; preds = %23
  store i32 2, i32* %5, align 4
  br label %80

80:                                               ; preds = %93, %79
  %81 = load i32, i32* %5, align 4
  %82 = icmp slt i32 %81, 13
  br i1 %82, label %83, label %96

83:                                               ; preds = %80
  %84 = load i32, i32* %5, align 4
  %85 = sext i32 %84 to i64
  %86 = getelementptr inbounds [12 x i32], [12 x i32]* %4, i64 0, i64 %85
  %87 = load i32, i32* %86, align 4
  %88 = icmp eq i32 %87, 5
  br i1 %88, label %89, label %92

89:                                               ; preds = %83
  %90 = load i32, i32* %5, align 4
  %91 = call i32 (i8*, ...) @printf(i8* getelementptr inbounds ([4 x i8], [4 x i8]* @.str.1, i64 0, i64 0), i32 %90)
  br label %92

92:                                               ; preds = %89, %83
  br label %93

93:                                               ; preds = %92
  %94 = load i32, i32* %5, align 4
  %95 = add nsw i32 %94, 1
  store i32 %95, i32* %5, align 4
  br label %80

96:                                               ; preds = %80
  ret i32 0
}

; Function Attrs: argmemonly nounwind willreturn
declare void @llvm.memset.p0i8.i64(i8* nocapture writeonly, i8, i64, i1 immarg) #1

declare dso_local i32 @__isoc99_scanf(i8*, ...) #2

declare dso_local i32 @printf(i8*, ...) #2


!llvm.module.flags = !{!0}
!llvm.ident = !{!1}

!0 = !{i32 1, !"wchar_size", i32 4}
!1 = !{!"clang version 10.0.0-4ubuntu1 "}
